; Function Attrs: mustprogress uwtable
define hidden void @_ZN4cvc58internal13preprocessing4util12ITEUtilities7simpITEENS0_12NodeTemplateILb0EEE(ptr dead_on_unwind noalias writable writeonly sret(%"class.cvc5::internal::NodeTemplate") align 8 captures(none) %0, ptr noundef nonnull align 8 captures(none) dereferenceable(48) %1, ptr noundef readonly captures(none) %2) local_unnamed_addr #3 align 2 personality ptr @__gxx_personality_v0 {
  %4 = alloca %"class.cvc5::internal::NodeTemplate.375", align 8
  %5 = getelementptr inbounds nuw i8, ptr %1, i64 32
  %6 = load ptr, ptr %5, align 8, !tbaa !20
  %7 = icmp eq ptr %6, null
  br i1 %7, label %8, label %17

8:                                                ; preds = %3
  %9 = tail call noalias noundef nonnull dereferenceable(712) ptr @_Znwm(i64 noundef 712) #27
  %10 = getelementptr inbounds nuw i8, ptr %1, i64 8
  %11 = load ptr, ptr %10, align 8, !tbaa !35
  %12 = getelementptr inbounds nuw i8, ptr %1, i64 16
  %13 = load ptr, ptr %12, align 8, !tbaa !18
  invoke void @_ZN4cvc58internal13preprocessing4util13ITESimplifierC2ERNS0_3EnvEPNS2_22ContainsTermITEVisitorE(ptr noundef nonnull align 8 dereferenceable(712) %9, ptr noundef nonnull align 8 dereferenceable(696) %11, ptr noundef %13)
          to label %14 unwind label %15

14:                                               ; preds = %8
  store ptr %9, ptr %5, align 8, !tbaa !20
  br label %17

15:                                               ; preds = %8
  %16 = landingpad { ptr, i32 }
          cleanup
  tail call void @_ZdlPvm(ptr noundef nonnull %9, i64 noundef 712) #29
  resume { ptr, i32 } %16

17:                                               ; preds = %14, %3
  %18 = phi ptr [ %9, %14 ], [ %6, %3 ]
  %19 = load ptr, ptr %2, align 8, !tbaa !36
  store ptr %19, ptr %4, align 8, !tbaa !36
  call void @_ZN4cvc58internal13preprocessing4util13ITESimplifier7simpITEENS0_12NodeTemplateILb0EEE(ptr dead_on_unwind writable sret(%"class.cvc5::internal::NodeTemplate") align 8 %0, ptr noundef nonnull align 8 dereferenceable(712) %18, ptr noundef nonnull %4)
  ret void
}